target datalayout = "e-m:e-p270:32:32-p271:32:32-p272:64:64-i64:64-i128:128-f80:128-n8:16:32:64-S128"
target triple = "x86_64-unknown-linux-gnu"

%"class.OpenColorIO_v2_4dev::DynamicPropertyImpl" = type <{ %"class.OpenColorIO_v2_4dev::DynamicProperty", i32, i8, [3 x i8] }>
%"class.OpenColorIO_v2_4dev::DynamicProperty" = type { ptr }
%"class.OpenColorIO_v2_4dev::DynamicPropertyImpl.base" = type <{ %"class.OpenColorIO_v2_4dev::DynamicProperty", i32, i8 }>
%"class.OpenColorIO_v2_4dev::DynamicPropertyGradingPrimaryImpl" = type { %"class.OpenColorIO_v2_4dev::DynamicPropertyImpl.base", %"class.OpenColorIO_v2_4dev::DynamicPropertyGradingPrimary", i32, i32, %"struct.OpenColorIO_v2_4dev::GradingPrimary", %"struct.OpenColorIO_v2_4dev::GradingPrimaryPreRender" }
%"class.OpenColorIO_v2_4dev::DynamicPropertyGradingPrimary" = type { ptr }
%"struct.OpenColorIO_v2_4dev::GradingPrimary" = type { %"struct.OpenColorIO_v2_4dev::GradingRGBM", %"struct.OpenColorIO_v2_4dev::GradingRGBM", %"struct.OpenColorIO_v2_4dev::GradingRGBM", %"struct.OpenColorIO_v2_4dev::GradingRGBM", %"struct.OpenColorIO_v2_4dev::GradingRGBM", %"struct.OpenColorIO_v2_4dev::GradingRGBM", %"struct.OpenColorIO_v2_4dev::GradingRGBM", double, double, double, double, double, double }
%"struct.OpenColorIO_v2_4dev::GradingRGBM" = type { double, double, double, double }
%"struct.OpenColorIO_v2_4dev::GradingPrimaryPreRender" = type <{ %"struct.std::array", %"struct.std::array", %"struct.std::array", %"struct.std::array", %"struct.std::array", %"struct.std::array", double, i8, i8, [6 x i8] }>
%"struct.std::array" = type { [3 x float] }

; Function Attrs: mustprogress nounwind uwtable
define linkonce_odr hidden void @_ZN19OpenColorIO_v2_4dev15DynamicPropertyC2Ev(ptr noundef nonnull align 8 dereferenceable(8) %this) unnamed_addr #1 comdat align 2 {
entry:
  %this.addr = alloca ptr, align 8
  store ptr %this, ptr %this.addr, align 8
  %this1 = load ptr, ptr %this.addr, align 8
  store ptr getelementptr inbounds ({ [5 x ptr] }, ptr @_ZTVN19OpenColorIO_v2_4dev15DynamicPropertyE, i32 0, i32 0, i32 2), ptr %this1, align 8
  ret void
}

; Function Attrs: mustprogress nounwind uwtable
define linkonce_odr hidden void @_ZN19OpenColorIO_v2_4dev23GradingPrimaryPreRenderC2Ev(ptr noundef nonnull align 8 dereferenceable(82) %this) unnamed_addr #1 comdat align 2 {
entry:
  %this.addr = alloca ptr, align 8
  store ptr %this, ptr %this.addr, align 8
  %this1 = load ptr, ptr %this.addr, align 8
  %m_brightness = getelementptr inbounds %"struct.OpenColorIO_v2_4dev::GradingPrimaryPreRender", ptr %this1, i32 0, i32 0
  %_M_elems = getelementptr inbounds %"struct.std::array", ptr %m_brightness, i32 0, i32 0
  %arrayinit.begin = getelementptr inbounds [3 x float], ptr %_M_elems, i64 0, i64 0
  store float 0.000000e+00, ptr %arrayinit.begin, align 4
  %arrayinit.element = getelementptr inbounds float, ptr %arrayinit.begin, i64 1
  store float 0.000000e+00, ptr %arrayinit.element, align 4
  %arrayinit.element2 = getelementptr inbounds float, ptr %arrayinit.element, i64 1
  store float 0.000000e+00, ptr %arrayinit.element2, align 4
  %m_contrast = getelementptr inbounds %"struct.OpenColorIO_v2_4dev::GradingPrimaryPreRender", ptr %this1, i32 0, i32 1
  %_M_elems3 = getelementptr inbounds %"struct.std::array", ptr %m_contrast, i32 0, i32 0
  %arrayinit.begin4 = getelementptr inbounds [3 x float], ptr %_M_elems3, i64 0, i64 0
  store float 0.000000e+00, ptr %arrayinit.begin4, align 4
  %arrayinit.element5 = getelementptr inbounds float, ptr %arrayinit.begin4, i64 1
  store float 0.000000e+00, ptr %arrayinit.element5, align 4
  %arrayinit.element6 = getelementptr inbounds float, ptr %arrayinit.element5, i64 1
  store float 0.000000e+00, ptr %arrayinit.element6, align 4
  %m_gamma = getelementptr inbounds %"struct.OpenColorIO_v2_4dev::GradingPrimaryPreRender", ptr %this1, i32 0, i32 2
  %_M_elems7 = getelementptr inbounds %"struct.std::array", ptr %m_gamma, i32 0, i32 0
  %arrayinit.begin8 = getelementptr inbounds [3 x float], ptr %_M_elems7, i64 0, i64 0
  store float 0.000000e+00, ptr %arrayinit.begin8, align 4
  %arrayinit.element9 = getelementptr inbounds float, ptr %arrayinit.begin8, i64 1
  store float 0.000000e+00, ptr %arrayinit.element9, align 4
  %arrayinit.element10 = getelementptr inbounds float, ptr %arrayinit.element9, i64 1
  store float 0.000000e+00, ptr %arrayinit.element10, align 4
  %m_exposure = getelementptr inbounds %"struct.OpenColorIO_v2_4dev::GradingPrimaryPreRender", ptr %this1, i32 0, i32 3
  %_M_elems11 = getelementptr inbounds %"struct.std::array", ptr %m_exposure, i32 0, i32 0
  %arrayinit.begin12 = getelementptr inbounds [3 x float], ptr %_M_elems11, i64 0, i64 0
  store float 0.000000e+00, ptr %arrayinit.begin12, align 4
  %arrayinit.element13 = getelementptr inbounds float, ptr %arrayinit.begin12, i64 1
  store float 0.000000e+00, ptr %arrayinit.element13, align 4
  %arrayinit.element14 = getelementptr inbounds float, ptr %arrayinit.element13, i64 1
  store float 0.000000e+00, ptr %arrayinit.element14, align 4
  %m_offset = getelementptr inbounds %"struct.OpenColorIO_v2_4dev::GradingPrimaryPreRender", ptr %this1, i32 0, i32 4
  %_M_elems15 = getelementptr inbounds %"struct.std::array", ptr %m_offset, i32 0, i32 0
  %arrayinit.begin16 = getelementptr inbounds [3 x float], ptr %_M_elems15, i64 0, i64 0
  store float 0.000000e+00, ptr %arrayinit.begin16, align 4
  %arrayinit.element17 = getelementptr inbounds float, ptr %arrayinit.begin16, i64 1
  store float 0.000000e+00, ptr %arrayinit.element17, align 4
  %arrayinit.element18 = getelementptr inbounds float, ptr %arrayinit.element17, i64 1
  store float 0.000000e+00, ptr %arrayinit.element18, align 4
  %m_slope = getelementptr inbounds %"struct.OpenColorIO_v2_4dev::GradingPrimaryPreRender", ptr %this1, i32 0, i32 5
  %_M_elems19 = getelementptr inbounds %"struct.std::array", ptr %m_slope, i32 0, i32 0
  %arrayinit.begin20 = getelementptr inbounds [3 x float], ptr %_M_elems19, i64 0, i64 0
  store float 0.000000e+00, ptr %arrayinit.begin20, align 4
  %arrayinit.element21 = getelementptr inbounds float, ptr %arrayinit.begin20, i64 1
  store float 0.000000e+00, ptr %arrayinit.element21, align 4
  %arrayinit.element22 = getelementptr inbounds float, ptr %arrayinit.element21, i64 1
  store float 0.000000e+00, ptr %arrayinit.element22, align 4
  %m_pivot = getelementptr inbounds %"struct.OpenColorIO_v2_4dev::GradingPrimaryPreRender", ptr %this1, i32 0, i32 6
  store double 0.000000e+00, ptr %m_pivot, align 8
  %m_isPowerIdentity = getelementptr inbounds %"struct.OpenColorIO_v2_4dev::GradingPrimaryPreRender", ptr %this1, i32 0, i32 7
  store i8 0, ptr %m_isPowerIdentity, align 8
  %m_localBypass = getelementptr inbounds %"struct.OpenColorIO_v2_4dev::GradingPrimaryPreRender", ptr %this1, i32 0, i32 8
  store i8 0, ptr %m_localBypass, align 1
  ret void
}

; Function Attrs: mustprogress nounwind uwtable
define linkonce_odr hidden void @_ZN19OpenColorIO_v2_4dev29DynamicPropertyGradingPrimaryC2Ev(ptr noundef nonnull align 8 dereferenceable(8) %this) unnamed_addr #1 comdat align 2 {
entry:
  %this.addr = alloca ptr, align 8
  store ptr %this, ptr %this.addr, align 8
  %this1 = load ptr, ptr %this.addr, align 8
  store ptr getelementptr inbounds ({ [6 x ptr] }, ptr @_ZTVN19OpenColorIO_v2_4dev29DynamicPropertyGradingPrimaryE, i32 0, i32 0, i32 2), ptr %this1, align 8
  ret void
}

; Function Attrs: mustprogress nounwind uwtable
define hidden void @_ZN19OpenColorIO_v2_4dev19DynamicPropertyImplC2ENS_19DynamicPropertyTypeEb(ptr noundef nonnull align 8 dereferenceable(13) %this, i32 noundef %type, i1 noundef zeroext %dynamic) unnamed_addr #1 align 2 {
entry:
  %this.addr = alloca ptr, align 8
  %type.addr = alloca i32, align 4
  %dynamic.addr = alloca i8, align 1
  store ptr %this, ptr %this.addr, align 8
  store i32 %type, ptr %type.addr, align 4
  %frombool = zext i1 %dynamic to i8
  store i8 %frombool, ptr %dynamic.addr, align 1
  %this1 = load ptr, ptr %this.addr, align 8
  call void @_ZN19OpenColorIO_v2_4dev15DynamicPropertyC2Ev(ptr noundef nonnull align 8 dereferenceable(8) %this1) #13
  store ptr getelementptr inbounds ({ [5 x ptr] }, ptr @_ZTVN19OpenColorIO_v2_4dev19DynamicPropertyImplE, i32 0, i32 0, i32 2), ptr %this1, align 8
  %m_type = getelementptr inbounds %"class.OpenColorIO_v2_4dev::DynamicPropertyImpl", ptr %this1, i32 0, i32 1
  %0 = load i32, ptr %type.addr, align 4
  store i32 %0, ptr %m_type, align 8
  %m_isDynamic = getelementptr inbounds %"class.OpenColorIO_v2_4dev::DynamicPropertyImpl", ptr %this1, i32 0, i32 2
  %1 = load i8, ptr %dynamic.addr, align 1
  %tobool = trunc i8 %1 to i1
  %frombool2 = zext i1 %tobool to i8
  store i8 %frombool2, ptr %m_isDynamic, align 4
  ret void
}

; Function Attrs: mustprogress nounwind uwtable
define hidden void @_ZN19OpenColorIO_v2_4dev33DynamicPropertyGradingPrimaryImplC2ENS_12GradingStyleENS_18TransformDirectionERKNS_14GradingPrimaryEb(ptr noundef nonnull align 8 dereferenceable(392) %this, i32 noundef %style, i32 noundef %dir, ptr noundef nonnull align 8 dereferenceable(272) %value, i1 noundef zeroext %dynamic) unnamed_addr #1 align 2 {
entry:
  %this.addr = alloca ptr, align 8
  %style.addr = alloca i32, align 4
  %dir.addr = alloca i32, align 4
  %value.addr = alloca ptr, align 8
  %dynamic.addr = alloca i8, align 1
  store ptr %this, ptr %this.addr, align 8
  store i32 %style, ptr %style.addr, align 4
  store i32 %dir, ptr %dir.addr, align 4
  store ptr %value, ptr %value.addr, align 8
  %frombool = zext i1 %dynamic to i8
  store i8 %frombool, ptr %dynamic.addr, align 1
  %this1 = load ptr, ptr %this.addr, align 8
  %0 = load i8, ptr %dynamic.addr, align 1
  %tobool = trunc i8 %0 to i1
  call void @_ZN19OpenColorIO_v2_4dev19DynamicPropertyImplC2ENS_19DynamicPropertyTypeEb(ptr noundef nonnull align 8 dereferenceable(13) %this1, i32 noundef 3, i1 noundef zeroext %tobool)
  %1 = getelementptr inbounds i8, ptr %this1, i64 16
  call void @_ZN19OpenColorIO_v2_4dev29DynamicPropertyGradingPrimaryC2Ev(ptr noundef nonnull align 8 dereferenceable(8) %1) #13
  store ptr getelementptr inbounds ({ [7 x ptr], [6 x ptr] }, ptr @_ZTVN19OpenColorIO_v2_4dev33DynamicPropertyGradingPrimaryImplE, i32 0, i32 0, i32 2), ptr %this1, align 8
  %add.ptr = getelementptr inbounds i8, ptr %this1, i64 16
  store ptr getelementptr inbounds ({ [7 x ptr], [6 x ptr] }, ptr @_ZTVN19OpenColorIO_v2_4dev33DynamicPropertyGradingPrimaryImplE, i32 0, i32 1, i32 2), ptr %add.ptr, align 8
  %m_style = getelementptr inbounds %"class.OpenColorIO_v2_4dev::DynamicPropertyGradingPrimaryImpl", ptr %this1, i32 0, i32 2
  %2 = load i32, ptr %style.addr, align 4
  store i32 %2, ptr %m_style, align 8
  %m_direction = getelementptr inbounds %"class.OpenColorIO_v2_4dev::DynamicPropertyGradingPrimaryImpl", ptr %this1, i32 0, i32 3
  %3 = load i32, ptr %dir.addr, align 4
  store i32 %3, ptr %m_direction, align 4
  %m_value = getelementptr inbounds %"class.OpenColorIO_v2_4dev::DynamicPropertyGradingPrimaryImpl", ptr %this1, i32 0, i32 4
  %4 = load ptr, ptr %value.addr, align 8
  call void @llvm.memcpy.p0.p0.i64(ptr align 8 %m_value, ptr align 8 %4, i64 272, i1 false)
  %m_preRenderValues = getelementptr inbounds %"class.OpenColorIO_v2_4dev::DynamicPropertyGradingPrimaryImpl", ptr %this1, i32 0, i32 5
  call void @_ZN19OpenColorIO_v2_4dev23GradingPrimaryPreRenderC2Ev(ptr noundef nonnull align 8 dereferenceable(82) %m_preRenderValues) #13
  %m_preRenderValues2 = getelementptr inbounds %"class.OpenColorIO_v2_4dev::DynamicPropertyGradingPrimaryImpl", ptr %this1, i32 0, i32 5
  %m_style3 = getelementptr inbounds %"class.OpenColorIO_v2_4dev::DynamicPropertyGradingPrimaryImpl", ptr %this1, i32 0, i32 2
  %5 = load i32, ptr %m_style3, align 8
  %m_direction4 = getelementptr inbounds %"class.OpenColorIO_v2_4dev::DynamicPropertyGradingPrimaryImpl", ptr %this1, i32 0, i32 3
  %6 = load i32, ptr %m_direction4, align 4
  %m_value5 = getelementptr inbounds %"class.OpenColorIO_v2_4dev::DynamicPropertyGradingPrimaryImpl", ptr %this1, i32 0, i32 4
  call void @_ZN19OpenColorIO_v2_4dev23GradingPrimaryPreRender6updateENS_12GradingStyleENS_18TransformDirectionERKNS_14GradingPrimaryE(ptr noundef nonnull align 8 dereferenceable(82) %m_preRenderValues2, i32 noundef %5, i32 noundef %6, ptr noundef nonnull align 8 dereferenceable(272) %m_value5) #13
  ret void
}