; Function Attrs: mustprogress nounwind uwtable
define hidden void @_ZN19OpenColorIO_v2_4dev33DynamicPropertyGradingPrimaryImplC2ENS_12GradingStyleENS_18TransformDirectionERKNS_14GradingPrimaryEb(ptr noundef nonnull align 8 dereferenceable(392) %this, i32 noundef %style, i32 noundef %dir, ptr nocapture noundef nonnull readonly align 8 dereferenceable(272) %value, i1 noundef zeroext %dynamic) unnamed_addr #3 align 2 {
entry:
  %frombool.i = zext i1 %dynamic to i8
  %m_type.i = getelementptr inbounds i8, ptr %this, i64 8
  store i32 3, ptr %m_type.i, align 8
  %m_isDynamic.i = getelementptr inbounds i8, ptr %this, i64 12
  store i8 %frombool.i, ptr %m_isDynamic.i, align 4
  %0 = getelementptr inbounds i8, ptr %this, i64 16
  store ptr getelementptr inbounds ({ [7 x ptr], [6 x ptr] }, ptr @_ZTVN19OpenColorIO_v2_4dev33DynamicPropertyGradingPrimaryImplE, i64 0, i32 0, i64 2), ptr %this, align 8
  store ptr getelementptr inbounds ({ [7 x ptr], [6 x ptr] }, ptr @_ZTVN19OpenColorIO_v2_4dev33DynamicPropertyGradingPrimaryImplE, i64 0, i32 1, i64 2), ptr %0, align 8
  %m_style = getelementptr inbounds i8, ptr %this, i64 24
  store i32 %style, ptr %m_style, align 8
  %m_direction = getelementptr inbounds i8, ptr %this, i64 28
  store i32 %dir, ptr %m_direction, align 4
  %m_value = getelementptr inbounds i8, ptr %this, i64 32
  tail call void @llvm.memcpy.p0.p0.i64(ptr noundef nonnull align 8 dereferenceable(272) %m_value, ptr noundef nonnull align 8 dereferenceable(272) %value, i64 272, i1 false)
  %m_preRenderValues = getelementptr inbounds i8, ptr %this, i64 304
  tail call void @llvm.memset.p0.i64(ptr noundef nonnull align 8 dereferenceable(82) %m_preRenderValues, i8 0, i64 82, i1 false)
  tail call void @_ZN19OpenColorIO_v2_4dev23GradingPrimaryPreRender6updateENS_12GradingStyleENS_18TransformDirectionERKNS_14GradingPrimaryE(ptr noundef nonnull align 8 dereferenceable(82) %m_preRenderValues, i32 noundef %style, i32 noundef %dir, ptr noundef nonnull align 8 dereferenceable(272) %m_value) #20
  ret void
}